target datalayout = "e-m:e-p270:32:32-p271:32:32-p272:64:64-i64:64-i128:128-f80:128-n8:16:32:64-S128"
target triple = "x86_64-pc-linux-gnu"

%struct.lv_color_t = type { i8, i8, i8 }

; Function Attrs: nounwind uwtable
define i24 @lv_color_make(i8 noundef zeroext %0, i8 noundef zeroext %1, i8 noundef zeroext %2) #0 {
  %4 = alloca %struct.lv_color_t, align 1
  %5 = alloca i8, align 1
  %6 = alloca i8, align 1
  %7 = alloca i8, align 1
  %8 = alloca i24, align 4
  store i8 %0, ptr %5, align 1, !tbaa !7
  store i8 %1, ptr %6, align 1, !tbaa !7
  store i8 %2, ptr %7, align 1, !tbaa !7
  %9 = load i8, ptr %5, align 1, !tbaa !7
  %10 = getelementptr inbounds nuw %struct.lv_color_t, ptr %4, i32 0, i32 2
  store i8 %9, ptr %10, align 1, !tbaa !11
  %11 = load i8, ptr %6, align 1, !tbaa !7
  %12 = getelementptr inbounds nuw %struct.lv_color_t, ptr %4, i32 0, i32 1
  store i8 %11, ptr %12, align 1, !tbaa !15
  %13 = load i8, ptr %7, align 1, !tbaa !7
  %14 = getelementptr inbounds nuw %struct.lv_color_t, ptr %4, i32 0, i32 0
  store i8 %13, ptr %14, align 1, !tbaa !17
  call void @llvm.memcpy.p0.p0.i64(ptr align 4 %8, ptr align 1 %4, i64 3, i1 false)
  %15 = load i24, ptr %8, align 4
  ret i24 %15
}