; Function Attrs: mustprogress nofree norecurse nosync nounwind willreturn memory(none) uwtable
define i24 @lv_color_make(i8 noundef zeroext %0, i8 noundef zeroext %1, i8 noundef zeroext %2) local_unnamed_addr #1 {
  %.sroa.3.0.insert.ext = zext i8 %0 to i24
  %.sroa.3.0.insert.shift = shl nuw i24 %.sroa.3.0.insert.ext, 16
  %.sroa.2.0.insert.ext = zext i8 %1 to i24
  %.sroa.2.0.insert.shift = shl nuw nsw i24 %.sroa.2.0.insert.ext, 8
  %.sroa.2.0.insert.insert = or disjoint i24 %.sroa.2.0.insert.shift, %.sroa.3.0.insert.shift
  %.sroa.0.0.insert.ext = zext i8 %2 to i24
  %.sroa.0.0.insert.insert = or disjoint i24 %.sroa.2.0.insert.insert, %.sroa.0.0.insert.ext
  ret i24 %.sroa.0.0.insert.insert
}